Certificate:
    Data:
        Version: 3 (0x2)
        Serial Number:
            08:42:f0:82:75:9a:d5:c6:09:2c:75:c1:91:5e:ba:48:d9:38:77:a0
        Signature Algorithm: ecdsa-with-SHA256
        Issuer: C = IN, ST = TS, L = HYD, O = NTS Root R1, OU = NTS, CN = NTS Root R1, emailAddress = cs22mtech11015@iith.ac.in
        Validity
            Not Before: Mar 25 12:27:28 2023 GMT
            Not After : Mar 24 12:27:28 2024 GMT
        Subject: C = IN, ST = TS, L = HYD, O = NTS, OU = INTER, CN = NTS CA 1R3, emailAddress = cs22mtech11015@iith.ac.in
        Subject Public Key Info:
            Public Key Algorithm: rsaEncryption
                Public-Key: (2048 bit)
                Modulus:
                    00:f7:6f:08:6d:07:08:4a:38:cb:62:6f:c1:67:9b:
                    e6:92:90:89:7c:56:bb:21:66:7e:32:3f:f2:bc:3e:
                    d3:67:fd:aa:29:1b:fe:16:36:5f:a9:4e:47:18:08:
                    87:dd:db:48:87:db:1d:e4:f2:4a:01:e7:cd:75:25:
                    c8:74:6d:07:45:0b:b9:bf:e2:45:95:9f:d5:b8:ba:
                    07:2d:99:c9:43:05:f9:63:16:58:f5:96:53:7c:a6:
                    70:2f:ad:36:b8:c3:f4:95:b0:a3:10:7d:5b:36:09:
                    ee:67:14:8c:f1:47:0a:d1:7a:3b:cd:0e:04:85:7e:
                    ea:3f:33:42:bf:1d:6c:30:6e:96:60:cb:2d:bd:03:
                    ac:7c:94:69:b0:8d:5d:3a:ba:52:be:d2:cf:02:5e:
                    b0:d2:02:1c:9d:28:4a:b4:a9:de:85:3f:87:d9:4e:
                    f9:30:da:81:70:84:43:d5:7a:44:e4:bb:52:69:66:
                    fc:57:63:5b:4d:fa:f4:75:64:5d:9e:38:45:c3:87:
                    25:0b:e8:46:c1:1a:01:d9:07:d5:f5:e3:4c:12:e3:
                    23:6b:a5:c6:53:77:41:02:1a:43:2d:55:33:7b:d5:
                    57:c2:e6:df:e1:bb:34:fe:bc:bf:1b:25:74:5c:94:
                    31:60:76:f9:15:2a:c2:ce:11:42:ed:d7:56:f2:e5:
                    06:b3
                Exponent: 65537 (0x10001)
        X509v3 extensions:
            X509v3 Authority Key Identifier: 
                keyid:62:F1:1B:0F:B6:CE:B9:47:A9:B2:55:C4:3B:4A:F6:B3:97:0E:1E:08
                DirName:/C=IN/ST=TS/L=HYD/O=NTS Root R1/OU=NTS/CN=NTS Root R1/emailAddress=cs22mtech11015@iith.ac.in
                serial:75:31:56:68:74:3B:AA:B2:94:AC:07:F7:52:3D:FE:EA:21:52:DE:A9
            X509v3 Basic Constraints: 
                CA:TRUE
            X509v3 Key Usage: critical
                Certificate Sign, CRL Sign
            X509v3 Subject Key Identifier: 
                2E:07:C4:27:40:4F:7C:2E:77:46:67:CB:E6:D2:11:7A:89:A9:58:CD
    Signature Algorithm: ecdsa-with-SHA256
    Signature Value:
        30:81:85:02:41:00:9d:c6:03:f5:ec:80:6d:01:0e:64:69:8e:
        c3:7a:21:82:6c:b1:6e:38:de:de:92:0b:12:fb:e4:3c:c5:7b:
        17:7b:cd:f4:c6:e4:51:ef:7b:75:50:c4:d9:eb:92:27:96:ca:
        87:d5:14:90:af:71:5a:92:51:a5:9c:a6:24:6f:aa:10:02:40:
        2f:df:5a:ee:4f:f9:f5:45:0d:1f:5b:e2:b4:9f:6d:b2:20:88:
        47:07:ee:84:38:24:ad:b5:e5:0a:74:fa:e6:32:bf:00:04:99:
        8d:ed:c9:0c:94:b0:85:45:5c:a3:f4:17:fb:0e:4e:78:69:b0:
        de:cb:35:74:23:68:f0:ca:28:d9
-----BEGIN CERTIFICATE-----
MIIENDCCA5igAwIBAgIUCELwgnWa1cYJLHXBkV66SNk4d6AwCgYIKoZIzj0EAwIw
gYwxCzAJBgNVBAYTAklOMQswCQYDVQQIDAJUUzEMMAoGA1UEBwwDSFlEMRQwEgYD
VQQKDAtOVFMgUm9vdCBSMTEMMAoGA1UECwwDTlRTMRQwEgYDVQQDDAtOVFMgUm9v
dCBSMTEoMCYGCSqGSIb3DQEJARYZY3MyMm10ZWNoMTEwMTVAaWl0aC5hYy5pbjAe
Fw0yMzAzMjUxMjI3MjhaFw0yNDAzMjQxMjI3MjhaMIGFMQswCQYDVQQGEwJJTjEL
MAkGA1UECAwCVFMxDDAKBgNVBAcMA0hZRDEMMAoGA1UECgwDTlRTMQ4wDAYDVQQL
DAVJTlRFUjETMBEGA1UEAwwKTlRTIENBIDFSMzEoMCYGCSqGSIb3DQEJARYZY3My
Mm10ZWNoMTEwMTVAaWl0aC5hYy5pbjCCASIwDQYJKoZIhvcNAQEBBQADggEPADCC
AQoCggEBAPdvCG0HCEo4y2JvwWeb5pKQiXxWuyFmfjI/8rw+02f9qikb/hY2X6lO
RxgIh93bSIfbHeTySgHnzXUlyHRtB0ULub/iRZWf1bi6By2ZyUMF+WMWWPWWU3ym
cC+tNrjD9JWwoxB9WzYJ7mcUjPFHCtF6O80OBIV+6j8zQr8dbDBulmDLLb0DrHyU
abCNXTq6Ur7SzwJesNICHJ0oSrSp3oU/h9lO+TDagXCEQ9V6ROS7Umlm/FdjW036
9HVkXZ44RcOHJQvoRsEaAdkH1fXjTBLjI2ulxlN3QQIaQy1VM3vVV8Lm3+G7NP68
vxsldFyUMWB2+RUqws4RQu3XVvLlBrMCAwEAAaOCARAwggEMMIHMBgNVHSMEgcQw
gcGAFGLxGw+2zrlHqbJVxDtK9rOXDh4IoYGSpIGPMIGMMQswCQYDVQQGEwJJTjEL
MAkGA1UECAwCVFMxDDAKBgNVBAcMA0hZRDEUMBIGA1UECgwLTlRTIFJvb3QgUjEx
DDAKBgNVBAsMA05UUzEUMBIGA1UEAwwLTlRTIFJvb3QgUjExKDAmBgkqhkiG9w0B
CQEWGWNzMjJtdGVjaDExMDE1QGlpdGguYWMuaW6CFHUxVmh0O6qylKwH91I9/uoh
Ut6pMAwGA1UdEwQFMAMBAf8wDgYDVR0PAQH/BAQDAgEGMB0GA1UdDgQWBBQuB8Qn
QE98LndGZ8vm0hF6ialYzTAKBggqhkjOPQQDAgOBiQAwgYUCQQCdxgP17IBtAQ5k
aY7DeiGCbLFuON7ekgsS++Q8xXsXe830xuRR73t1UMTZ65InlsqH1RSQr3FaklGl
nKYkb6oQAkAv31ruT/n1RQ0fW+K0n22yIIhHB+6EOCStteUKdPrmMr8ABJmN7ckM
lLCFRVyj9Bf7Dk54abDeyzV0I2jwyijZ
-----END CERTIFICATE-----
Certificate:
    Data:
        Version: 3 (0x2)
        Serial Number:
            75:31:56:68:74:3b:aa:b2:94:ac:07:f7:52:3d:fe:ea:21:52:de:a9
        Signature Algorithm: ecdsa-with-SHA256
        Issuer: C = IN, ST = TS, L = HYD, O = NTS Root R1, OU = NTS, CN = NTS Root R1, emailAddress = cs22mtech11015@iith.ac.in
        Validity
            Not Before: Mar 25 12:03:23 2023 GMT
            Not After : Mar 22 12:03:23 2033 GMT
        Subject: C = IN, ST = TS, L = HYD, O = NTS Root R1, OU = NTS, CN = NTS Root R1, emailAddress = cs22mtech11015@iith.ac.in
        Subject Public Key Info:
            Public Key Algorithm: id-ecPublicKey
                Public-Key: (512 bit)
                pub:
                    04:3e:d1:48:c7:e9:98:54:b3:9e:ee:dd:9c:0a:00:
                    36:a4:a6:7c:b1:19:e0:3c:ba:95:0d:b6:49:ea:8b:
                    b1:6a:7d:4c:ad:c6:a1:af:84:73:dd:17:78:ba:78:
                    02:3d:f5:7b:9d:41:45:39:41:08:bc:d0:a1:0d:51:
                    30:d8:f1:47:7f:1a:ea:e6:ad:d3:1a:b6:cf:54:9e:
                    d5:39:e1:bd:d3:e2:98:e5:82:81:37:9e:6d:eb:2d:
                    c6:59:8f:89:eb:b1:3b:63:3b:ff:ac:f8:ef:bc:bc:
                    bc:ad:dd:7d:78:06:e8:b5:fe:94:dd:d0:c4:9e:4f:
                    73:3c:47:de:0b:7c:86:76:6e
                ASN1 OID: brainpoolP512t1
        X509v3 extensions:
            X509v3 Authority Key Identifier: 
                keyid:62:F1:1B:0F:B6:CE:B9:47:A9:B2:55:C4:3B:4A:F6:B3:97:0E:1E:08
                DirName:/C=IN/ST=TS/L=HYD/O=NTS Root R1/OU=NTS/CN=NTS Root R1/emailAddress=cs22mtech11015@iith.ac.in
                serial:75:31:56:68:74:3B:AA:B2:94:AC:07:F7:52:3D:FE:EA:21:52:DE:A9
            X509v3 Basic Constraints: 
                CA:TRUE
            X509v3 Key Usage: critical
                Certificate Sign, CRL Sign
            X509v3 Subject Key Identifier: 
                62:F1:1B:0F:B6:CE:B9:47:A9:B2:55:C4:3B:4A:F6:B3:97:0E:1E:08
    Signature Algorithm: ecdsa-with-SHA256
    Signature Value:
        30:81:85:02:41:00:a3:34:d1:ef:a5:9b:b7:8e:32:56:c4:4d:
        a9:71:bf:0f:7e:b6:12:61:53:18:01:09:49:5b:2d:4b:af:d0:
        ff:de:1a:4f:15:88:4e:d4:29:07:ef:27:e7:47:07:15:88:b2:
        01:38:cf:bf:8c:ee:18:9d:5c:b9:59:ee:b7:47:a6:58:02:40:
        7e:44:c8:64:62:49:de:dd:18:2a:c9:49:ba:bc:ee:66:09:7b:
        a9:a0:32:59:52:ef:ca:7a:86:09:c0:e5:0b:48:18:12:e6:1e:
        d0:01:02:d9:4f:05:0b:1f:c2:d8:1b:cf:2a:da:59:b8:53:16:
        21:e2:00:81:ad:55:39:86:3c:d2
-----BEGIN CERTIFICATE-----
MIIDszCCAxegAwIBAgIUdTFWaHQ7qrKUrAf3Uj3+6iFS3qkwCgYIKoZIzj0EAwIw
gYwxCzAJBgNVBAYTAklOMQswCQYDVQQIDAJUUzEMMAoGA1UEBwwDSFlEMRQwEgYD
VQQKDAtOVFMgUm9vdCBSMTEMMAoGA1UECwwDTlRTMRQwEgYDVQQDDAtOVFMgUm9v
dCBSMTEoMCYGCSqGSIb3DQEJARYZY3MyMm10ZWNoMTEwMTVAaWl0aC5hYy5pbjAe
Fw0yMzAzMjUxMjAzMjNaFw0zMzAzMjIxMjAzMjNaMIGMMQswCQYDVQQGEwJJTjEL
MAkGA1UECAwCVFMxDDAKBgNVBAcMA0hZRDEUMBIGA1UECgwLTlRTIFJvb3QgUjEx
DDAKBgNVBAsMA05UUzEUMBIGA1UEAwwLTlRTIFJvb3QgUjExKDAmBgkqhkiG9w0B
CQEWGWNzMjJtdGVjaDExMDE1QGlpdGguYWMuaW4wgZswFAYHKoZIzj0CAQYJKyQD
AwIIAQEOA4GCAAQ+0UjH6ZhUs57u3ZwKADakpnyxGeA8upUNtknqi7FqfUytxqGv
hHPdF3i6eAI99XudQUU5QQi80KENUTDY8Ud/GurmrdMats9UntU54b3T4pjlgoE3
nm3rLcZZj4nrsTtjO/+s+O+8vLyt3X14Bui1/pTd0MSeT3M8R94LfIZ2bqOCARAw
ggEMMIHMBgNVHSMEgcQwgcGAFGLxGw+2zrlHqbJVxDtK9rOXDh4IoYGSpIGPMIGM
MQswCQYDVQQGEwJJTjELMAkGA1UECAwCVFMxDDAKBgNVBAcMA0hZRDEUMBIGA1UE
CgwLTlRTIFJvb3QgUjExDDAKBgNVBAsMA05UUzEUMBIGA1UEAwwLTlRTIFJvb3Qg
UjExKDAmBgkqhkiG9w0BCQEWGWNzMjJtdGVjaDExMDE1QGlpdGguYWMuaW6CFHUx
Vmh0O6qylKwH91I9/uohUt6pMAwGA1UdEwQFMAMBAf8wDgYDVR0PAQH/BAQDAgEG
MB0GA1UdDgQWBBRi8RsPts65R6myVcQ7Svazlw4eCDAKBggqhkjOPQQDAgOBiQAw
gYUCQQCjNNHvpZu3jjJWxE2pcb8PfrYSYVMYAQlJWy1Lr9D/3hpPFYhO1CkH7yfn
RwcViLIBOM+/jO4YnVy5We63R6ZYAkB+RMhkYkne3RgqyUm6vO5mCXupoDJZUu/K
eoYJwOULSBgS5h7QAQLZTwULH8LYG88q2lm4UxYh4gCBrVU5hjzS
-----END CERTIFICATE-----
